; Function Attrs: nounwind uwtable
define noundef i32 @pmix_show_help_init(ptr noundef %0) local_unnamed_addr #0 {
  %2 = alloca %struct.pmix_output_stream_t, align 8
  call void @llvm.lifetime.start.p0(i64 168, ptr nonnull %2) #18
  %3 = load i32, ptr @pmix_class_init_epoch, align 4, !tbaa !24
  %4 = load i32, ptr getelementptr inbounds nuw (i8, ptr @pmix_output_stream_t_class, i64 32), align 8, !tbaa !25
  %.not = icmp eq i32 %3, %4
  br i1 %.not, label %6, label %5

5:                                                ; preds = %1
  tail call void @pmix_class_initialize(ptr noundef nonnull @pmix_output_stream_t_class) #18
  br label %6

6:                                                ; preds = %5, %1
  %7 = getelementptr inbounds nuw i8, ptr %2, i64 40
  store ptr @pmix_output_stream_t_class, ptr %7, align 8, !tbaa !26
  %8 = getelementptr inbounds nuw i8, ptr %2, i64 48
  store i32 1, ptr %8, align 8, !tbaa !27
  %9 = getelementptr inbounds nuw i8, ptr %2, i64 56
  call void @llvm.memset.p0.i64(ptr noundef nonnull align 8 dereferenceable(64) %9, i8 0, i64 64, i1 false)
  %10 = load ptr, ptr getelementptr inbounds nuw (i8, ptr @pmix_output_stream_t_class, i64 40), align 8, !tbaa !28
  %11 = load ptr, ptr %10, align 8, !tbaa !29
  %.not6.i = icmp eq ptr %11, null
  br i1 %.not6.i, label %pmix_obj_run_constructors.exit, label %.lr.ph.i

.lr.ph.i:                                         ; preds = %6, %.lr.ph.i
  %12 = phi ptr [ %14, %.lr.ph.i ], [ %11, %6 ]
  %.07.i = phi ptr [ %13, %.lr.ph.i ], [ %10, %6 ]
  call void %12(ptr noundef nonnull %2) #18
  %13 = getelementptr inbounds nuw i8, ptr %.07.i, i64 8
  %14 = load ptr, ptr %13, align 8, !tbaa !29
  %.not.i = icmp eq ptr %14, null
  br i1 %.not.i, label %pmix_obj_run_constructors.exit, label %.lr.ph.i, !llvm.loop !30

pmix_obj_run_constructors.exit:                   ; preds = %.lr.ph.i, %6
  %15 = getelementptr inbounds nuw i8, ptr %2, i64 155
  store i8 1, ptr %15, align 1, !tbaa !58
  %16 = call i32 @pmix_output_open(ptr noundef nonnull %2) #18
  store i32 %16, ptr @output_stream, align 4, !tbaa !24
  %17 = load i32, ptr @pmix_class_init_epoch, align 4, !tbaa !24
  %18 = load i32, ptr getelementptr inbounds nuw (i8, ptr @pmix_list_t_class, i64 32), align 8, !tbaa !25
  %.not2 = icmp eq i32 %17, %18
  br i1 %.not2, label %20, label %19

19:                                               ; preds = %pmix_obj_run_constructors.exit
  call void @pmix_class_initialize(ptr noundef nonnull @pmix_list_t_class) #18
  br label %20

20:                                               ; preds = %19, %pmix_obj_run_constructors.exit
  store ptr @pmix_list_t_class, ptr getelementptr inbounds nuw (i8, ptr @abd_tuples, i64 40), align 8, !tbaa !26
  store i32 1, ptr getelementptr inbounds nuw (i8, ptr @abd_tuples, i64 48), align 8, !tbaa !27
  call void @llvm.memset.p0.i64(ptr noundef nonnull align 8 dereferenceable(64) getelementptr inbounds nuw (i8, ptr @abd_tuples, i64 56), i8 0, i64 64, i1 false)
  %21 = load ptr, ptr getelementptr inbounds nuw (i8, ptr @pmix_list_t_class, i64 40), align 8, !tbaa !28
  %22 = load ptr, ptr %21, align 8, !tbaa !29
  %.not6.i4 = icmp eq ptr %22, null
  br i1 %.not6.i4, label %pmix_obj_run_constructors.exit8, label %.lr.ph.i5

.lr.ph.i5:                                        ; preds = %20, %.lr.ph.i5
  %23 = phi ptr [ %25, %.lr.ph.i5 ], [ %22, %20 ]
  %.07.i6 = phi ptr [ %24, %.lr.ph.i5 ], [ %21, %20 ]
  call void %23(ptr noundef nonnull @abd_tuples) #18
  %24 = getelementptr inbounds nuw i8, ptr %.07.i6, i64 8
  %25 = load ptr, ptr %24, align 8, !tbaa !29
  %.not.i7 = icmp eq ptr %25, null
  br i1 %.not.i7, label %pmix_obj_run_constructors.exit8, label %.lr.ph.i5, !llvm.loop !30

pmix_obj_run_constructors.exit8:                  ; preds = %.lr.ph.i5, %20
  %26 = load ptr, ptr getelementptr inbounds nuw (i8, ptr @pmix_pinstall_dirs, i64 112), align 8, !tbaa !60
  %27 = call i32 @PMIx_Argv_append_nosize(ptr noundef nonnull @search_dirs, ptr noundef %26) #18
  %.not3 = icmp eq ptr %0, null
  br i1 %.not3, label %30, label %28

28:                                               ; preds = %pmix_obj_run_constructors.exit8
  %29 = call i32 @PMIx_Argv_append_nosize(ptr noundef nonnull @search_dirs, ptr noundef nonnull %0) #18
  br label %30

30:                                               ; preds = %28, %pmix_obj_run_constructors.exit8
  call void @llvm.lifetime.end.p0(i64 168, ptr nonnull %2) #18
  ret i32 0
}